; Function Attrs: mustprogress nofree norecurse nosync nounwind willreturn memory(argmem: read) uwtable
define internal i32 @cmp_mish_stripes(ptr nocapture noundef readonly %0, ptr nocapture noundef readonly %1) #7 {
  %3 = getelementptr inbounds i8, ptr %0, i64 8
  %4 = load i64, ptr %3, align 1
  %5 = getelementptr inbounds i8, ptr %1, i64 8
  %6 = load i64, ptr %5, align 1
  %7 = sub i64 %4, %6
  %8 = trunc i64 %7 to i32
  ret i32 %8
}